target datalayout = "e-m:e-p270:32:32-p271:32:32-p272:64:64-i64:64-i128:128-f80:128-n8:16:32:64-S128"
target triple = "x86_64-pc-linux-gnu"

%struct.Tuplesortstate = type { %struct.TuplesortPublic, i32, i8, i8, i32, i64, i64, i64, i32, i64, i8, i32, ptr, ptr, i32, i32, i8, i8, ptr, ptr, ptr, i64, ptr, i32, ptr, i32, i32, ptr, i32, i32, ptr, ptr, i32, i8, i64, i32, i8, i32, ptr, i32, i64, %struct.PGRUsage }
%struct.TuplesortPublic = type { ptr, ptr, ptr, ptr, ptr, ptr, ptr, ptr, ptr, i8, i32, ptr, ptr, i32, i8, ptr }
%struct.PGRUsage = type { %struct.timeval, %struct.rusage }
%struct.timeval = type { i64, i64 }
%struct.rusage = type { %struct.timeval, %struct.timeval, %union.anon, %union.anon.0, %union.anon.1, %union.anon.2, %union.anon.3, %union.anon.4, %union.anon.5, %union.anon.6, %union.anon.7, %union.anon.8, %union.anon.9, %union.anon.10, %union.anon.11, %union.anon.12 }
%union.anon = type { i64 }
%union.anon.0 = type { i64 }
%union.anon.1 = type { i64 }
%union.anon.2 = type { i64 }
%union.anon.3 = type { i64 }
%union.anon.4 = type { i64 }
%union.anon.5 = type { i64 }
%union.anon.6 = type { i64 }
%union.anon.7 = type { i64 }
%union.anon.8 = type { i64 }
%union.anon.9 = type { i64 }
%union.anon.10 = type { i64 }
%union.anon.11 = type { i64 }
%union.anon.12 = type { i64 }
%struct.SortTuple = type { ptr, i64, i8, i32 }

@.str.1 = private unnamed_addr constant [12 x i8] c"tuplesort.c\00", align 1
@CurrentMemoryContext = external global ptr, align 8
@InterruptPending = external global i32, align 4
@.str.5 = private unnamed_addr constant [24 x i8] c"invalid tuplesort state\00", align 1
@.str.9 = private unnamed_addr constant [44 x i8] c"retrieved too many tuples in a bounded sort\00", align 1
@__func__.tuplesort_skiptuples = private unnamed_addr constant [21 x i8] c"tuplesort_skiptuples\00", align 1

; Function Attrs: inlinehint nounwind uwtable
define internal ptr @MemoryContextSwitchTo(ptr noundef %0) #4 {
  %2 = alloca ptr, align 8
  %3 = alloca ptr, align 8
  store ptr %0, ptr %2, align 8
  call void @llvm.lifetime.start.p0(i64 8, ptr %3) #9
  %4 = load ptr, ptr @CurrentMemoryContext, align 8
  store ptr %4, ptr %3, align 8
  %5 = load ptr, ptr %2, align 8
  store ptr %5, ptr @CurrentMemoryContext, align 8
  %6 = load ptr, ptr %3, align 8
  call void @llvm.lifetime.end.p0(i64 8, ptr %3) #9
  ret ptr %6
}

; Function Attrs: nounwind uwtable
define dso_local zeroext i1 @tuplesort_skiptuples(ptr noundef %0, i64 noundef %1, i1 noundef zeroext %2) #0 {
  %4 = alloca i1, align 1
  %5 = alloca ptr, align 8
  %6 = alloca i64, align 8
  %7 = alloca i8, align 1
  %8 = alloca ptr, align 8
  %9 = alloca i32, align 4
  %10 = alloca %struct.SortTuple, align 8
  store ptr %0, ptr %5, align 8
  store i64 %1, ptr %6, align 8
  %11 = zext i1 %2 to i8
  store i8 %11, ptr %7, align 1
  call void @llvm.lifetime.start.p0(i64 8, ptr %8) #9
  %12 = load ptr, ptr %5, align 8
  %13 = getelementptr inbounds nuw %struct.Tuplesortstate, ptr %12, i32 0, i32 1
  %14 = load i32, ptr %13, align 8
  switch i32 %14, label %102 [
    i32 3, label %15
    i32 4, label %66
    i32 5, label %66
  ]

15:                                               ; preds = %3
  %16 = load ptr, ptr %5, align 8
  %17 = getelementptr inbounds nuw %struct.Tuplesortstate, ptr %16, i32 0, i32 14
  %18 = load i32, ptr %17, align 8
  %19 = load ptr, ptr %5, align 8
  %20 = getelementptr inbounds nuw %struct.Tuplesortstate, ptr %19, i32 0, i32 32
  %21 = load i32, ptr %20, align 8
  %22 = sub i32 %18, %21
  %23 = sext i32 %22 to i64
  %24 = load i64, ptr %6, align 8
  %25 = icmp sge i64 %23, %24
  br i1 %25, label %26, label %34

26:                                               ; preds = %15
  %27 = load i64, ptr %6, align 8
  %28 = load ptr, ptr %5, align 8
  %29 = getelementptr inbounds nuw %struct.Tuplesortstate, ptr %28, i32 0, i32 32
  %30 = load i32, ptr %29, align 8
  %31 = sext i32 %30 to i64
  %32 = add i64 %31, %27
  %33 = trunc i64 %32 to i32
  store i32 %33, ptr %29, align 8
  store i1 true, ptr %4, align 1
  store i32 1, ptr %9, align 4
  br label %113

34:                                               ; preds = %15
  %35 = load ptr, ptr %5, align 8
  %36 = getelementptr inbounds nuw %struct.Tuplesortstate, ptr %35, i32 0, i32 14
  %37 = load i32, ptr %36, align 8
  %38 = load ptr, ptr %5, align 8
  %39 = getelementptr inbounds nuw %struct.Tuplesortstate, ptr %38, i32 0, i32 32
  store i32 %37, ptr %39, align 8
  %40 = load ptr, ptr %5, align 8
  %41 = getelementptr inbounds nuw %struct.Tuplesortstate, ptr %40, i32 0, i32 33
  store i8 1, ptr %41, align 4
  %42 = load ptr, ptr %5, align 8
  %43 = getelementptr inbounds nuw %struct.Tuplesortstate, ptr %42, i32 0, i32 2
  %44 = load i8, ptr %43, align 4, !range !4, !noundef !5
  %45 = trunc i8 %44 to i1
  br i1 %45, label %46, label %65

46:                                               ; preds = %34
  %47 = load ptr, ptr %5, align 8
  %48 = getelementptr inbounds nuw %struct.Tuplesortstate, ptr %47, i32 0, i32 32
  %49 = load i32, ptr %48, align 8
  %50 = load ptr, ptr %5, align 8
  %51 = getelementptr inbounds nuw %struct.Tuplesortstate, ptr %50, i32 0, i32 4
  %52 = load i32, ptr %51, align 8
  %53 = icmp sge i32 %49, %52
  br i1 %53, label %54, label %65

54:                                               ; preds = %46
  br label %55

55:                                               ; preds = %54
  br i1 true, label %56, label %58

56:                                               ; preds = %55
  %57 = call zeroext i1 @errstart_cold(i32 noundef 21, ptr noundef null) #10
  br i1 %57, label %60, label %62

58:                                               ; preds = %55
  %59 = call zeroext i1 @errstart(i32 noundef 21, ptr noundef null)
  br i1 %59, label %60, label %62

60:                                               ; preds = %58, %56
  %61 = call i32 (ptr, ...) @errmsg_internal(ptr noundef @.str.9)
  call void @errfinish(ptr noundef @.str.1, i32 noundef 1739, ptr noundef @__func__.tuplesort_skiptuples)
  br label %62

62:                                               ; preds = %60, %58, %56
  unreachable

63:                                               ; No predecessors!
  br label %64

64:                                               ; preds = %63
  br label %65

65:                                               ; preds = %64, %46, %34
  store i1 false, ptr %4, align 1
  store i32 1, ptr %9, align 4
  br label %113

66:                                               ; preds = %3, %3
  %67 = load ptr, ptr %5, align 8
  %68 = getelementptr inbounds nuw %struct.Tuplesortstate, ptr %67, i32 0, i32 0
  %69 = getelementptr inbounds nuw %struct.TuplesortPublic, ptr %68, i32 0, i32 7
  %70 = load ptr, ptr %69, align 8
  %71 = call ptr @MemoryContextSwitchTo(ptr noundef %70)
  store ptr %71, ptr %8, align 8
  br label %72

72:                                               ; preds = %98, %66
  %73 = load i64, ptr %6, align 8
  %74 = add i64 %73, -1
  store i64 %74, ptr %6, align 8
  %75 = icmp sgt i64 %73, 0
  br i1 %75, label %76, label %99

76:                                               ; preds = %72
  call void @llvm.lifetime.start.p0(i64 24, ptr %10) #9
  %77 = load ptr, ptr %5, align 8
  %78 = load i8, ptr %7, align 1, !range !4, !noundef !5
  %79 = trunc i8 %78 to i1
  %80 = call zeroext i1 @tuplesort_gettuple_common(ptr noundef %77, i1 noundef zeroext %79, ptr noundef %10)
  br i1 %80, label %84, label %81

81:                                               ; preds = %76
  %82 = load ptr, ptr %8, align 8
  %83 = call ptr @MemoryContextSwitchTo(ptr noundef %82)
  store i1 false, ptr %4, align 1
  store i32 1, ptr %9, align 4
  br label %96

84:                                               ; preds = %76
  br label %85

85:                                               ; preds = %84
  %86 = load volatile i32, ptr @InterruptPending, align 4
  %87 = icmp ne i32 %86, 0
  %88 = zext i1 %87 to i32
  %89 = sext i32 %88 to i64
  %90 = call i64 @llvm.expect.i64(i64 %89, i64 0)
  %91 = icmp ne i64 %90, 0
  br i1 %91, label %92, label %93

92:                                               ; preds = %85
  call void @ProcessInterrupts()
  br label %93

93:                                               ; preds = %92, %85
  br label %94

94:                                               ; preds = %93
  br label %95

95:                                               ; preds = %94
  store i32 0, ptr %9, align 4
  br label %96

96:                                               ; preds = %95, %81
  call void @llvm.lifetime.end.p0(i64 24, ptr %10) #9
  %97 = load i32, ptr %9, align 4
  switch i32 %97, label %113 [
    i32 0, label %98
  ]

98:                                               ; preds = %96
  br label %72, !llvm.loop !16

99:                                               ; preds = %72
  %100 = load ptr, ptr %8, align 8
  %101 = call ptr @MemoryContextSwitchTo(ptr noundef %100)
  store i1 true, ptr %4, align 1
  store i32 1, ptr %9, align 4
  br label %113

102:                                              ; preds = %3
  br label %103

103:                                              ; preds = %102
  br i1 true, label %104, label %106

104:                                              ; preds = %103
  %105 = call zeroext i1 @errstart_cold(i32 noundef 21, ptr noundef null) #10
  br i1 %105, label %108, label %110

106:                                              ; preds = %103
  %107 = call zeroext i1 @errstart(i32 noundef 21, ptr noundef null)
  br i1 %107, label %108, label %110

108:                                              ; preds = %106, %104
  %109 = call i32 (ptr, ...) @errmsg_internal(ptr noundef @.str.5)
  call void @errfinish(ptr noundef @.str.1, i32 noundef 1766, ptr noundef @__func__.tuplesort_skiptuples)
  br label %110

110:                                              ; preds = %108, %106, %104
  unreachable

111:                                              ; No predecessors!
  br label %112

112:                                              ; preds = %111
  store i1 false, ptr %4, align 1
  store i32 1, ptr %9, align 4
  br label %113

113:                                              ; preds = %112, %99, %96, %65, %26
  call void @llvm.lifetime.end.p0(i64 8, ptr %8) #9
  %114 = load i1, ptr %4, align 1
  ret i1 %114
}