; Function Attrs: nounwind uwtable
define dso_local noundef zeroext i1 @tuplesort_skiptuples(ptr noundef %0, i64 noundef %1, i1 noundef zeroext %2) local_unnamed_addr #0 {
  %4 = alloca %struct.SortTuple, align 8
  %5 = getelementptr inbounds nuw i8, ptr %0, i64 112
  %6 = load i32, ptr %5, align 8
  switch i32 %6, label %40 [
    i32 3, label %7
    i32 4, label %28
    i32 5, label %28
  ]

7:                                                ; preds = %3
  %8 = getelementptr inbounds nuw i8, ptr %0, i64 192
  %9 = load i32, ptr %8, align 8
  %10 = getelementptr inbounds nuw i8, ptr %0, i64 304
  %11 = load i32, ptr %10, align 8
  %12 = sub i32 %9, %11
  %13 = sext i32 %12 to i64
  %.not22 = icmp sgt i64 %1, %13
  br i1 %.not22, label %17, label %14

14:                                               ; preds = %7
  %15 = trunc i64 %1 to i32
  %16 = add i32 %11, %15
  store i32 %16, ptr %10, align 8
  br label %43

17:                                               ; preds = %7
  store i32 %9, ptr %10, align 8
  %18 = getelementptr inbounds nuw i8, ptr %0, i64 308
  store i8 1, ptr %18, align 4
  %19 = getelementptr inbounds nuw i8, ptr %0, i64 116
  %20 = load i8, ptr %19, align 4, !range !4, !noundef !5
  %21 = trunc nuw i8 %20 to i1
  br i1 %21, label %22, label %43

22:                                               ; preds = %17
  %23 = getelementptr inbounds nuw i8, ptr %0, i64 120
  %24 = load i32, ptr %23, align 8
  %.not23 = icmp slt i32 %9, %24
  br i1 %.not23, label %43, label %25

25:                                               ; preds = %22
  %26 = tail call zeroext i1 @errstart_cold(i32 noundef 21, ptr noundef null) #12
  tail call void @llvm.assume(i1 %26)
  %27 = tail call i32 (ptr, ...) @errmsg_internal(ptr noundef nonnull @.str.9) #13
  tail call void @errfinish(ptr noundef nonnull @.str.1, i32 noundef 1739, ptr noundef nonnull @__func__.tuplesort_skiptuples) #13
  unreachable

28:                                               ; preds = %3, %3
  %29 = getelementptr inbounds nuw i8, ptr %0, i64 56
  %30 = load ptr, ptr %29, align 8
  %31 = load ptr, ptr @CurrentMemoryContext, align 8
  store ptr %30, ptr @CurrentMemoryContext, align 8
  %32 = icmp sgt i64 %1, 0
  br i1 %32, label %.lr.ph, label %._crit_edge

.lr.ph:                                           ; preds = %28, %38
  %.in = phi i64 [ %33, %38 ], [ %1, %28 ]
  %33 = add nsw i64 %.in, -1
  call void @llvm.lifetime.start.p0(i64 24, ptr nonnull %4) #13
  %34 = call zeroext i1 @tuplesort_gettuple_common(ptr noundef %0, i1 noundef zeroext %2, ptr noundef nonnull %4)
  br i1 %34, label %35, label %.thread

.thread:                                          ; preds = %.lr.ph
  store ptr %31, ptr @CurrentMemoryContext, align 8
  call void @llvm.lifetime.end.p0(i64 24, ptr nonnull %4) #13
  br label %43

35:                                               ; preds = %.lr.ph
  %36 = load volatile i32, ptr @InterruptPending, align 4
  %.not = icmp eq i32 %36, 0
  br i1 %.not, label %38, label %37, !prof !10

37:                                               ; preds = %35
  call void @ProcessInterrupts() #13
  br label %38

38:                                               ; preds = %35, %37
  call void @llvm.lifetime.end.p0(i64 24, ptr nonnull %4) #13
  %39 = icmp samesign ugt i64 %.in, 1
  br i1 %39, label %.lr.ph, label %._crit_edge

._crit_edge:                                      ; preds = %38, %28
  store ptr %31, ptr @CurrentMemoryContext, align 8
  br label %43

40:                                               ; preds = %3
  %41 = tail call zeroext i1 @errstart_cold(i32 noundef 21, ptr noundef null) #12
  tail call void @llvm.assume(i1 %41)
  %42 = tail call i32 (ptr, ...) @errmsg_internal(ptr noundef nonnull @.str.5) #13
  tail call void @errfinish(ptr noundef nonnull @.str.1, i32 noundef 1766, ptr noundef nonnull @__func__.tuplesort_skiptuples) #13
  unreachable

43:                                               ; preds = %.thread, %17, %22, %._crit_edge, %14
  %.019 = phi i1 [ true, %._crit_edge ], [ true, %14 ], [ false, %22 ], [ false, %17 ], [ false, %.thread ]
  ret i1 %.019
}